; Function Attrs: mustprogress uwtable
define void @_ZN6duckdb19BooleanColumnWriterC2ERNS_13ParquetWriterEmNS_6vectorINSt7__cxx1112basic_stringIcSt11char_traitsIcESaIcEEELb1EEEmmb(ptr noundef nonnull align 8 dereferenceable(65) %0, ptr noundef nonnull align 1 %1, i64 noundef %2, ptr noundef captures(none) %3, i64 noundef %4, i64 noundef %5, i1 noundef zeroext %6) unnamed_addr #0 align 2 personality ptr @__gxx_personality_v0 {
  %8 = alloca %"class.duckdb::vector.15", align 8
  %9 = alloca %"class.duckdb::vector.15", align 8
  %10 = load ptr, ptr %3, align 8, !tbaa !79
  %11 = getelementptr inbounds nuw i8, ptr %3, i64 8
  %12 = load ptr, ptr %11, align 8, !tbaa !80
  %13 = getelementptr inbounds nuw i8, ptr %3, i64 16
  %14 = load ptr, ptr %13, align 8, !tbaa !81
  tail call void @llvm.memset.p0.i64(ptr noundef nonnull align 8 dereferenceable(24) %3, i8 0, i64 24, i1 false)
  call void @llvm.lifetime.start.p0(i64 24, ptr nonnull %8)
  store ptr %10, ptr %8, align 8, !tbaa !79
  %15 = getelementptr inbounds nuw i8, ptr %8, i64 8
  store ptr %12, ptr %15, align 8, !tbaa !80
  %16 = getelementptr inbounds nuw i8, ptr %8, i64 16
  store ptr %14, ptr %16, align 8, !tbaa !81
  call void @llvm.memset.p0.i64(ptr noundef nonnull align 8 dereferenceable(24) %9, i8 0, i64 24, i1 false)
  invoke void @_ZN6duckdb12ColumnWriterC2ERNS_13ParquetWriterEmNS_6vectorINSt7__cxx1112basic_stringIcSt11char_traitsIcESaIcEEELb1EEEmmb(ptr noundef nonnull align 8 dereferenceable(65) %0, ptr noundef nonnull align 8 dereferenceable(672) %1, i64 noundef %2, ptr noundef nonnull %8, i64 noundef %4, i64 noundef %5, i1 noundef zeroext %6)
          to label %17 unwind label %.body

17:                                               ; preds = %7
  %18 = load ptr, ptr %8, align 8, !tbaa !79
  %19 = load ptr, ptr %15, align 8, !tbaa !80
  %.not4.i.i.i.i.i = icmp eq ptr %18, %19
  br i1 %.not4.i.i.i.i.i, label %_ZSt8_DestroyIPNSt7__cxx1112basic_stringIcSt11char_traitsIcESaIcEEES5_EvT_S7_RSaIT0_E.exit.i.i, label %.lr.ph.i.i.i.i.i

.lr.ph.i.i.i.i.i:                                 ; preds = %17, %_ZSt8_DestroyINSt7__cxx1112basic_stringIcSt11char_traitsIcESaIcEEEEvPT_.exit.i.i.i.i.i
  %.05.i.i.i.i.i = phi ptr [ %26, %_ZSt8_DestroyINSt7__cxx1112basic_stringIcSt11char_traitsIcESaIcEEEEvPT_.exit.i.i.i.i.i ], [ %18, %17 ]
  %20 = load ptr, ptr %.05.i.i.i.i.i, align 8, !tbaa !11
  %21 = getelementptr inbounds nuw i8, ptr %.05.i.i.i.i.i, i64 16
  %22 = icmp eq ptr %20, %21
  br i1 %22, label %_ZNKSt7__cxx1112basic_stringIcSt11char_traitsIcESaIcEE11_M_is_localEv.exit.thread.i.i.i.i.i.i.i.i, label %_ZNKSt7__cxx1112basic_stringIcSt11char_traitsIcESaIcEE11_M_is_localEv.exit.i.i.i.i.i.i.i.i

_ZNKSt7__cxx1112basic_stringIcSt11char_traitsIcESaIcEE11_M_is_localEv.exit.thread.i.i.i.i.i.i.i.i: ; preds = %.lr.ph.i.i.i.i.i
  %23 = getelementptr inbounds nuw i8, ptr %.05.i.i.i.i.i, i64 8
  %24 = load i64, ptr %23, align 8, !tbaa !16
  %25 = icmp ult i64 %24, 16
  call void @llvm.assume(i1 %25)
  br label %_ZSt8_DestroyINSt7__cxx1112basic_stringIcSt11char_traitsIcESaIcEEEEvPT_.exit.i.i.i.i.i

_ZNKSt7__cxx1112basic_stringIcSt11char_traitsIcESaIcEE11_M_is_localEv.exit.i.i.i.i.i.i.i.i: ; preds = %.lr.ph.i.i.i.i.i
  call void @_ZdlPv(ptr noundef %20) #27
  br label %_ZSt8_DestroyINSt7__cxx1112basic_stringIcSt11char_traitsIcESaIcEEEEvPT_.exit.i.i.i.i.i

_ZSt8_DestroyINSt7__cxx1112basic_stringIcSt11char_traitsIcESaIcEEEEvPT_.exit.i.i.i.i.i: ; preds = %_ZNKSt7__cxx1112basic_stringIcSt11char_traitsIcESaIcEE11_M_is_localEv.exit.i.i.i.i.i.i.i.i, %_ZNKSt7__cxx1112basic_stringIcSt11char_traitsIcESaIcEE11_M_is_localEv.exit.thread.i.i.i.i.i.i.i.i
  %26 = getelementptr inbounds nuw i8, ptr %.05.i.i.i.i.i, i64 32
  %.not.i.i.i.i.i = icmp eq ptr %26, %19
  br i1 %.not.i.i.i.i.i, label %_ZSt8_DestroyIPNSt7__cxx1112basic_stringIcSt11char_traitsIcESaIcEEES5_EvT_S7_RSaIT0_E.exitthread-pre-split.i.i, label %.lr.ph.i.i.i.i.i, !llvm.loop !82

_ZSt8_DestroyIPNSt7__cxx1112basic_stringIcSt11char_traitsIcESaIcEEES5_EvT_S7_RSaIT0_E.exitthread-pre-split.i.i: ; preds = %_ZSt8_DestroyINSt7__cxx1112basic_stringIcSt11char_traitsIcESaIcEEEEvPT_.exit.i.i.i.i.i
  %.pr.i.i = load ptr, ptr %8, align 8, !tbaa !79
  br label %_ZSt8_DestroyIPNSt7__cxx1112basic_stringIcSt11char_traitsIcESaIcEEES5_EvT_S7_RSaIT0_E.exit.i.i

_ZSt8_DestroyIPNSt7__cxx1112basic_stringIcSt11char_traitsIcESaIcEEES5_EvT_S7_RSaIT0_E.exit.i.i: ; preds = %_ZSt8_DestroyIPNSt7__cxx1112basic_stringIcSt11char_traitsIcESaIcEEES5_EvT_S7_RSaIT0_E.exitthread-pre-split.i.i, %17
  %27 = phi ptr [ %.pr.i.i, %_ZSt8_DestroyIPNSt7__cxx1112basic_stringIcSt11char_traitsIcESaIcEEES5_EvT_S7_RSaIT0_E.exitthread-pre-split.i.i ], [ %18, %17 ]
  %.not.i.i.i.i = icmp eq ptr %27, null
  br i1 %.not.i.i.i.i, label %_ZNSt6vectorINSt7__cxx1112basic_stringIcSt11char_traitsIcESaIcEEESaIS5_EED2Ev.exit, label %28

28:                                               ; preds = %_ZSt8_DestroyIPNSt7__cxx1112basic_stringIcSt11char_traitsIcESaIcEEES5_EvT_S7_RSaIT0_E.exit.i.i
  call void @_ZdlPv(ptr noundef nonnull %27) #27
  br label %_ZNSt6vectorINSt7__cxx1112basic_stringIcSt11char_traitsIcESaIcEEESaIS5_EED2Ev.exit

.body:                                            ; preds = %7
  %29 = landingpad { ptr, i32 }
          cleanup
  call void @_ZNSt6vectorINSt7__cxx1112basic_stringIcSt11char_traitsIcESaIcEEESaIS5_EED2Ev(ptr noundef nonnull align 8 dereferenceable(24) %8) #25
  call void @_ZNSt6vectorINSt7__cxx1112basic_stringIcSt11char_traitsIcESaIcEEESaIS5_EED2Ev(ptr noundef nonnull align 8 dereferenceable(24) %9) #25
  resume { ptr, i32 } %29

_ZNSt6vectorINSt7__cxx1112basic_stringIcSt11char_traitsIcESaIcEEESaIS5_EED2Ev.exit: ; preds = %28, %_ZSt8_DestroyIPNSt7__cxx1112basic_stringIcSt11char_traitsIcESaIcEEES5_EvT_S7_RSaIT0_E.exit.i.i
  call void @llvm.lifetime.end.p0(i64 24, ptr nonnull %8)
  store ptr getelementptr inbounds nuw inrange(-16, 152) (i8, ptr @_ZTVN6duckdb19BooleanColumnWriterE, i64 16), ptr %0, align 8, !tbaa !3
  ret void
}